target datalayout = "e-m:e-p270:32:32-p271:32:32-p272:64:64-i64:64-i128:128-f80:128-n8:16:32:64-S128"
target triple = "x86_64-pc-linux-gnu"

%struct.lua_State = type { %struct.GCRef, i8, i8, i8, i8, %struct.MRef, %struct.GCRef, ptr, ptr, %struct.MRef, %struct.MRef, %struct.GCRef, %struct.GCRef, ptr, i32 }
%struct.MRef = type { i64 }
%struct.GCRef = type { i64 }
%union.TValue = type { i64 }
%struct.CTState = type { ptr, i32, i32, ptr, ptr, ptr, %struct.CCallback, [128 x i16] }
%struct.CCallback = type { [8 x %union.FPRCBArg], [8 x i64], ptr, ptr, ptr, i32, i32, i32 }
%union.FPRCBArg = type { double }
%struct.global_State = type { ptr, ptr, %struct.GCState, %struct.GCstr, i8, i8, i8, i8, %struct.StrInternState, i32, %struct.GCRef, %struct.SBuf, %union.TValue, %union.TValue, %struct.Node, %union.TValue, %struct.GCupval, i32, i32, ptr, ptr, ptr, i32, i32, %struct.GCRef, %struct.MRef, %struct.MRef, %struct.PRNGState, [39 x %struct.GCRef] }
%struct.GCState = type { i64, i64, i8, i8, i8, i8, i32, %struct.GCRef, %struct.MRef, %struct.GCRef, %struct.GCRef, %struct.GCRef, %struct.GCRef, i64, i64, i32, i32, %struct.MRef }
%struct.GCstr = type { %struct.GCRef, i8, i8, i8, i8, i32, i32, i32 }
%struct.StrInternState = type { ptr, i32, i32, i32, i8, i8, i8, i8, i64 }
%struct.SBuf = type { ptr, ptr, ptr, %struct.MRef }
%struct.Node = type { %union.TValue, %union.TValue, %struct.MRef }
%struct.GCupval = type { %struct.GCRef, i8, i8, i8, i8, %union.anon, %struct.MRef, i32 }
%union.anon = type { %struct.anon.1 }
%struct.anon.1 = type { %struct.GCRef, %struct.GCRef }
%struct.PRNGState = type { [4 x i64] }
%struct.GCcdata = type { %struct.GCRef, i8, i8, i16 }
%struct.CPState = type { i32, i32, %struct.CPValue, ptr, ptr, ptr, %struct.SBuf, ptr, ptr, ptr, ptr, i32, i32, i32, i32, [7 x i8], i8 }
%struct.CPValue = type { %union.anon.2, i32 }
%union.anon.2 = type { i32 }

@.str.4 = private unnamed_addr constant [7 x i8] c"C type\00", align 1

; Function Attrs: alwaysinline nounwind uwtable
define internal void @setintV(ptr noundef %0, i32 noundef %1) #3 {
  %3 = alloca ptr, align 8
  %4 = alloca i32, align 4
  store ptr %0, ptr %3, align 8, !tbaa !30
  store i32 %1, ptr %4, align 4, !tbaa !34
  %5 = load i32, ptr %4, align 4, !tbaa !34
  %6 = sitofp i32 %5 to double
  %7 = load ptr, ptr %3, align 8, !tbaa !30
  store double %6, ptr %7, align 8, !tbaa !26
  ret void
}

; Function Attrs: nounwind uwtable
define internal i32 @ffi_checkctype(ptr noundef %0, ptr noundef %1, ptr noundef %2) #0 {
  %4 = alloca i32, align 4
  %5 = alloca ptr, align 8
  %6 = alloca ptr, align 8
  %7 = alloca ptr, align 8
  %8 = alloca ptr, align 8
  %9 = alloca ptr, align 8
  %10 = alloca %struct.CPState, align 8
  %11 = alloca i32, align 4
  %12 = alloca i32, align 4
  %13 = alloca ptr, align 8
  store ptr %0, ptr %5, align 8, !tbaa !4
  store ptr %1, ptr %6, align 8, !tbaa !9
  store ptr %2, ptr %7, align 8, !tbaa !30
  call void @llvm.lifetime.start.p0(i64 8, ptr %8) #10
  %14 = load ptr, ptr %5, align 8, !tbaa !4
  %15 = getelementptr inbounds nuw %struct.lua_State, ptr %14, i32 0, i32 7
  %16 = load ptr, ptr %15, align 8, !tbaa !37
  store ptr %16, ptr %8, align 8, !tbaa !30
  %17 = load ptr, ptr %8, align 8, !tbaa !30
  %18 = load ptr, ptr %5, align 8, !tbaa !4
  %19 = getelementptr inbounds nuw %struct.lua_State, ptr %18, i32 0, i32 8
  %20 = load ptr, ptr %19, align 8, !tbaa !11
  %21 = icmp ult ptr %17, %20
  br i1 %21, label %25, label %22

22:                                               ; preds = %3
  br label %23

23:                                               ; preds = %100, %22
  %24 = load ptr, ptr %5, align 8, !tbaa !4
  call void @lj_err_argtype(ptr noundef %24, i32 noundef 1, ptr noundef @.str.4) #11
  unreachable

25:                                               ; preds = %3
  %26 = load ptr, ptr %8, align 8, !tbaa !30
  %27 = load i64, ptr %26, align 8, !tbaa !26
  %28 = ashr i64 %27, 47
  %29 = trunc i64 %28 to i32
  %30 = icmp eq i32 %29, -5
  br i1 %30, label %31, label %60

31:                                               ; preds = %25
  call void @llvm.lifetime.start.p0(i64 8, ptr %9) #10
  %32 = load ptr, ptr %8, align 8, !tbaa !30
  %33 = getelementptr inbounds nuw %struct.GCRef, ptr %32, i32 0, i32 0
  %34 = load i64, ptr %33, align 8, !tbaa !26
  %35 = and i64 %34, 140737488355327
  %36 = inttoptr i64 %35 to ptr
  store ptr %36, ptr %9, align 8, !tbaa !69
  call void @llvm.lifetime.start.p0(i64 128, ptr %10) #10
  call void @llvm.lifetime.start.p0(i64 4, ptr %11) #10
  %37 = load ptr, ptr %5, align 8, !tbaa !4
  %38 = getelementptr inbounds nuw %struct.CPState, ptr %10, i32 0, i32 7
  store ptr %37, ptr %38, align 8, !tbaa !71
  %39 = load ptr, ptr %6, align 8, !tbaa !9
  %40 = getelementptr inbounds nuw %struct.CPState, ptr %10, i32 0, i32 8
  store ptr %39, ptr %40, align 8, !tbaa !74
  %41 = load ptr, ptr %9, align 8, !tbaa !69
  %42 = getelementptr inbounds %struct.GCstr, ptr %41, i64 1
  %43 = getelementptr inbounds nuw %struct.CPState, ptr %10, i32 0, i32 10
  store ptr %42, ptr %43, align 8, !tbaa !75
  %44 = load ptr, ptr %9, align 8, !tbaa !69
  %45 = getelementptr inbounds %struct.GCstr, ptr %44, i64 1
  %46 = getelementptr inbounds nuw %struct.CPState, ptr %10, i32 0, i32 5
  store ptr %45, ptr %46, align 8, !tbaa !76
  %47 = load ptr, ptr %7, align 8, !tbaa !30
  %48 = getelementptr inbounds nuw %struct.CPState, ptr %10, i32 0, i32 9
  store ptr %47, ptr %48, align 8, !tbaa !77
  %49 = getelementptr inbounds nuw %struct.CPState, ptr %10, i32 0, i32 14
  store i32 18, ptr %49, align 4, !tbaa !78
  %50 = call i32 @lj_cparse(ptr noundef %10)
  store i32 %50, ptr %11, align 4, !tbaa !34
  %51 = load i32, ptr %11, align 4, !tbaa !34
  %52 = icmp ne i32 %51, 0
  br i1 %52, label %53, label %56

53:                                               ; preds = %31
  %54 = load ptr, ptr %5, align 8, !tbaa !4
  %55 = load i32, ptr %11, align 4, !tbaa !34
  call void @lj_err_throw(ptr noundef %54, i32 noundef %55) #11
  unreachable

56:                                               ; preds = %31
  %57 = getelementptr inbounds nuw %struct.CPState, ptr %10, i32 0, i32 2
  %58 = getelementptr inbounds nuw %struct.CPValue, ptr %57, i32 0, i32 1
  %59 = load i32, ptr %58, align 4, !tbaa !79
  store i32 %59, ptr %4, align 4
  store i32 1, ptr %12, align 4
  call void @llvm.lifetime.end.p0(i64 4, ptr %11) #10
  call void @llvm.lifetime.end.p0(i64 128, ptr %10) #10
  call void @llvm.lifetime.end.p0(i64 8, ptr %9) #10
  br label %102

60:                                               ; preds = %25
  call void @llvm.lifetime.start.p0(i64 8, ptr %13) #10
  %61 = load ptr, ptr %8, align 8, !tbaa !30
  %62 = load i64, ptr %61, align 8, !tbaa !26
  %63 = ashr i64 %62, 47
  %64 = trunc i64 %63 to i32
  %65 = icmp eq i32 %64, -11
  br i1 %65, label %67, label %66

66:                                               ; preds = %60
  store i32 2, ptr %12, align 4
  br label %100

67:                                               ; preds = %60
  %68 = load ptr, ptr %7, align 8, !tbaa !30
  %69 = icmp ne ptr %68, null
  br i1 %69, label %70, label %78

70:                                               ; preds = %67
  %71 = load ptr, ptr %7, align 8, !tbaa !30
  %72 = load ptr, ptr %5, align 8, !tbaa !4
  %73 = getelementptr inbounds nuw %struct.lua_State, ptr %72, i32 0, i32 8
  %74 = load ptr, ptr %73, align 8, !tbaa !11
  %75 = icmp ult ptr %71, %74
  br i1 %75, label %76, label %78

76:                                               ; preds = %70
  %77 = load ptr, ptr %5, align 8, !tbaa !4
  call void @lj_err_arg(ptr noundef %77, i32 noundef 1, i32 noundef 3176) #11
  unreachable

78:                                               ; preds = %70, %67
  %79 = load ptr, ptr %8, align 8, !tbaa !30
  %80 = getelementptr inbounds nuw %struct.GCRef, ptr %79, i32 0, i32 0
  %81 = load i64, ptr %80, align 8, !tbaa !26
  %82 = and i64 %81, 140737488355327
  %83 = inttoptr i64 %82 to ptr
  store ptr %83, ptr %13, align 8, !tbaa !50
  %84 = load ptr, ptr %13, align 8, !tbaa !50
  %85 = getelementptr inbounds nuw %struct.GCcdata, ptr %84, i32 0, i32 3
  %86 = load i16, ptr %85, align 2, !tbaa !52
  %87 = zext i16 %86 to i32
  %88 = icmp eq i32 %87, 22
  br i1 %88, label %89, label %93

89:                                               ; preds = %78
  %90 = load ptr, ptr %13, align 8, !tbaa !50
  %91 = getelementptr inbounds %struct.GCcdata, ptr %90, i64 1
  %92 = load i32, ptr %91, align 4, !tbaa !34
  br label %98

93:                                               ; preds = %78
  %94 = load ptr, ptr %13, align 8, !tbaa !50
  %95 = getelementptr inbounds nuw %struct.GCcdata, ptr %94, i32 0, i32 3
  %96 = load i16, ptr %95, align 2, !tbaa !52
  %97 = zext i16 %96 to i32
  br label %98

98:                                               ; preds = %93, %89
  %99 = phi i32 [ %92, %89 ], [ %97, %93 ]
  store i32 %99, ptr %4, align 4
  store i32 1, ptr %12, align 4
  br label %100

100:                                              ; preds = %98, %66
  call void @llvm.lifetime.end.p0(i64 8, ptr %13) #10
  %101 = load i32, ptr %12, align 4
  switch i32 %101, label %102 [
    i32 2, label %23
  ]

102:                                              ; preds = %100, %56
  call void @llvm.lifetime.end.p0(i64 8, ptr %8) #10
  %103 = load i32, ptr %4, align 4
  ret i32 %103
}

; Function Attrs: alwaysinline nounwind uwtable
define internal ptr @ctype_cts(ptr noundef %0) #3 {
  %2 = alloca ptr, align 8
  %3 = alloca ptr, align 8
  store ptr %0, ptr %2, align 8, !tbaa !4
  call void @llvm.lifetime.start.p0(i64 8, ptr %3) #10
  %4 = load ptr, ptr %2, align 8, !tbaa !4
  %5 = getelementptr inbounds nuw %struct.lua_State, ptr %4, i32 0, i32 5
  %6 = getelementptr inbounds nuw %struct.MRef, ptr %5, i32 0, i32 0
  %7 = load i64, ptr %6, align 8, !tbaa !27
  %8 = inttoptr i64 %7 to ptr
  %9 = getelementptr inbounds nuw %struct.global_State, ptr %8, i32 0, i32 26
  %10 = getelementptr inbounds nuw %struct.MRef, ptr %9, i32 0, i32 0
  %11 = load i64, ptr %10, align 8, !tbaa !61
  %12 = inttoptr i64 %11 to ptr
  store ptr %12, ptr %3, align 8, !tbaa !9
  %13 = load ptr, ptr %2, align 8, !tbaa !4
  %14 = load ptr, ptr %3, align 8, !tbaa !9
  %15 = getelementptr inbounds nuw %struct.CTState, ptr %14, i32 0, i32 3
  store ptr %13, ptr %15, align 8, !tbaa !62
  %16 = load ptr, ptr %3, align 8, !tbaa !9
  call void @llvm.lifetime.end.p0(i64 8, ptr %3) #10
  ret ptr %16
}

; Function Attrs: nounwind uwtable
define internal i32 @lj_cf_ffi_alignof(ptr noundef %0) #0 {
  %2 = alloca ptr, align 8
  %3 = alloca ptr, align 8
  %4 = alloca i32, align 4
  %5 = alloca i32, align 4
  %6 = alloca i32, align 4
  store ptr %0, ptr %2, align 8, !tbaa !4
  call void @llvm.lifetime.start.p0(i64 8, ptr %3) #10
  %7 = load ptr, ptr %2, align 8, !tbaa !4
  %8 = call ptr @ctype_cts(ptr noundef %7)
  store ptr %8, ptr %3, align 8, !tbaa !9
  call void @llvm.lifetime.start.p0(i64 4, ptr %4) #10
  %9 = load ptr, ptr %2, align 8, !tbaa !4
  %10 = load ptr, ptr %3, align 8, !tbaa !9
  %11 = call i32 @ffi_checkctype(ptr noundef %9, ptr noundef %10, ptr noundef null)
  store i32 %11, ptr %4, align 4, !tbaa !34
  call void @llvm.lifetime.start.p0(i64 4, ptr %5) #10
  store i32 0, ptr %5, align 4, !tbaa !34
  call void @llvm.lifetime.start.p0(i64 4, ptr %6) #10
  %12 = load ptr, ptr %3, align 8, !tbaa !9
  %13 = load i32, ptr %4, align 4, !tbaa !34
  %14 = call i32 @lj_ctype_info_raw(ptr noundef %12, i32 noundef %13, ptr noundef %5)
  store i32 %14, ptr %6, align 4, !tbaa !34
  %15 = load ptr, ptr %2, align 8, !tbaa !4
  %16 = getelementptr inbounds nuw %struct.lua_State, ptr %15, i32 0, i32 8
  %17 = load ptr, ptr %16, align 8, !tbaa !11
  %18 = getelementptr inbounds %union.TValue, ptr %17, i64 -1
  %19 = load i32, ptr %6, align 4, !tbaa !34
  %20 = lshr i32 %19, 16
  %21 = and i32 %20, 15
  %22 = shl i32 1, %21
  call void @setintV(ptr noundef %18, i32 noundef %22)
  call void @llvm.lifetime.end.p0(i64 4, ptr %6) #10
  call void @llvm.lifetime.end.p0(i64 4, ptr %5) #10
  call void @llvm.lifetime.end.p0(i64 4, ptr %4) #10
  call void @llvm.lifetime.end.p0(i64 8, ptr %3) #10
  ret i32 1
}