; Function Attrs: nounwind uwtable
define internal noundef i32 @lj_cf_ffi_alignof(ptr noundef %0) #0 {
  %2 = alloca %struct.CPState, align 8
  %3 = alloca i32, align 4
  %4 = getelementptr inbounds nuw i8, ptr %0, i64 16
  %5 = load i64, ptr %4, align 8, !tbaa !24
  %6 = inttoptr i64 %5 to ptr
  %7 = getelementptr inbounds nuw i8, ptr %6, i64 384
  %8 = load i64, ptr %7, align 8, !tbaa !41
  %9 = inttoptr i64 %8 to ptr
  %10 = getelementptr inbounds nuw i8, ptr %9, i64 16
  store ptr %0, ptr %10, align 8, !tbaa !42
  %11 = getelementptr inbounds nuw i8, ptr %0, i64 32
  %12 = load ptr, ptr %11, align 8, !tbaa !44
  %13 = getelementptr inbounds nuw i8, ptr %0, i64 40
  %14 = load ptr, ptr %13, align 8, !tbaa !4
  %15 = icmp ult ptr %12, %14
  br i1 %15, label %17, label %16

16:                                               ; preds = %17, %1
  tail call void @lj_err_argtype(ptr noundef nonnull %0, i32 noundef 1, ptr noundef nonnull @.str.4) #10
  unreachable

17:                                               ; preds = %1
  %18 = load i64, ptr %12, align 8, !tbaa !23
  %19 = ashr i64 %18, 47
  switch i64 %19, label %16 [
    i64 -5, label %20
    i64 -11, label %35
  ]

20:                                               ; preds = %17
  %21 = and i64 %18, 140737488355327
  %22 = inttoptr i64 %21 to ptr
  call void @llvm.lifetime.start.p0(i64 128, ptr nonnull %2) #9
  %23 = getelementptr inbounds nuw i8, ptr %2, i64 72
  store ptr %0, ptr %23, align 8, !tbaa !60
  %24 = getelementptr inbounds nuw i8, ptr %2, i64 80
  store ptr %9, ptr %24, align 8, !tbaa !65
  %25 = getelementptr inbounds nuw i8, ptr %22, i64 24
  %26 = getelementptr inbounds nuw i8, ptr %2, i64 96
  store ptr %25, ptr %26, align 8, !tbaa !66
  %27 = getelementptr inbounds nuw i8, ptr %2, i64 32
  store ptr %25, ptr %27, align 8, !tbaa !67
  %28 = getelementptr inbounds nuw i8, ptr %2, i64 88
  store ptr null, ptr %28, align 8, !tbaa !68
  %29 = getelementptr inbounds nuw i8, ptr %2, i64 116
  store i32 18, ptr %29, align 4, !tbaa !69
  %30 = call i32 @lj_cparse(ptr noundef nonnull %2) #9
  %.not32.i = icmp eq i32 %30, 0
  br i1 %.not32.i, label %32, label %31

31:                                               ; preds = %20
  call void @lj_err_throw(ptr noundef nonnull %0, i32 noundef %30) #10
  unreachable

32:                                               ; preds = %20
  %33 = getelementptr inbounds nuw i8, ptr %2, i64 12
  %34 = load i32, ptr %33, align 4, !tbaa !70
  call void @llvm.lifetime.end.p0(i64 128, ptr nonnull %2) #9
  br label %ffi_checkctype.exit

35:                                               ; preds = %17
  %36 = and i64 %18, 140737488355327
  %37 = inttoptr i64 %36 to ptr
  %38 = getelementptr inbounds nuw i8, ptr %37, i64 10
  %39 = load i16, ptr %38, align 2, !tbaa !48
  %40 = icmp eq i16 %39, 22
  br i1 %40, label %41, label %44

41:                                               ; preds = %35
  %42 = getelementptr inbounds nuw i8, ptr %37, i64 16
  %43 = load i32, ptr %42, align 4, !tbaa !43
  br label %ffi_checkctype.exit

44:                                               ; preds = %35
  %45 = zext i16 %39 to i32
  br label %ffi_checkctype.exit

ffi_checkctype.exit:                              ; preds = %32, %41, %44
  %.0.i = phi i32 [ %34, %32 ], [ %45, %44 ], [ %43, %41 ]
  call void @llvm.lifetime.start.p0(i64 4, ptr nonnull %3) #9
  store i32 0, ptr %3, align 4, !tbaa !43
  %46 = call i32 @lj_ctype_info_raw(ptr noundef nonnull %9, i32 noundef %.0.i, ptr noundef nonnull %3) #9
  %47 = load ptr, ptr %13, align 8, !tbaa !4
  %48 = getelementptr inbounds i8, ptr %47, i64 -8
  %49 = lshr i32 %46, 16
  %50 = and i32 %49, 15
  %51 = shl nuw nsw i32 1, %50
  %52 = uitofp nneg i32 %51 to double
  store double %52, ptr %48, align 8, !tbaa !23
  call void @llvm.lifetime.end.p0(i64 4, ptr nonnull %3) #9
  ret i32 1
}